target datalayout = "e-m:e-p270:32:32-p271:32:32-p272:64:64-i64:64-i128:128-f80:128-n8:16:32:64-S128"
target triple = "x86_64-pc-linux-gnu"

%struct.rb_data_type_struct = type { ptr, %struct.anon.12, ptr, ptr, i64 }
%struct.anon.12 = type { ptr, ptr, ptr, ptr, [1 x ptr] }
%struct.ASTLocationData = type { i32, i32, i32, i32 }

@.str.44 = private unnamed_addr constant [3 x i8] c"#<\00", align 1
@rb_location_type = internal constant %struct.rb_data_type_struct { ptr @.str.47, %struct.anon.12 { ptr @location_gc_mark, ptr inttoptr (i64 -1 to ptr), ptr @location_memsize, ptr null, [1 x ptr] zeroinitializer }, ptr null, ptr null, i64 1 }, align 8
@.str.48 = private unnamed_addr constant [15 x i8] c":@%d:%d-%d:%d>\00", align 1

; Function Attrs: inlinehint nounwind sspstrong uwtable
define internal i64 @rbimpl_strlen(ptr noundef nonnull %0) #5 {
  %2 = alloca ptr, align 8
  store ptr %0, ptr %2, align 8, !tbaa !117
  %3 = load ptr, ptr %2, align 8, !tbaa !117
  %4 = call i64 @strlen(ptr noundef %3) #18
  ret i64 %4
}

; Function Attrs: inlinehint nounwind sspstrong uwtable
define internal i64 @rbimpl_str_new_cstr(ptr noundef nonnull %0) #5 {
  %2 = alloca ptr, align 8
  %3 = alloca i64, align 8
  store ptr %0, ptr %2, align 8, !tbaa !117
  call void @llvm.lifetime.start.p0(i64 8, ptr %3) #16
  %4 = load ptr, ptr %2, align 8, !tbaa !117
  %5 = call i64 @rbimpl_strlen(ptr noundef %4)
  store i64 %5, ptr %3, align 8, !tbaa !12
  %6 = load ptr, ptr %2, align 8, !tbaa !117
  %7 = load i64, ptr %3, align 8, !tbaa !12
  %8 = call i64 @rb_str_new_static(ptr noundef %6, i64 noundef %7)
  call void @llvm.lifetime.end.p0(i64 8, ptr %3) #16
  ret i64 %8
}

; Function Attrs: nounwind sspstrong uwtable
define internal i64 @ast_location_inspect(ptr noundef %0, i64 noundef %1) #0 {
  %3 = alloca ptr, align 8
  %4 = alloca i64, align 8
  %5 = alloca i64, align 8
  %6 = alloca i64, align 8
  %7 = alloca ptr, align 8
  store ptr %0, ptr %3, align 8, !tbaa !7
  store i64 %1, ptr %4, align 8, !tbaa !12
  call void @llvm.lifetime.start.p0(i64 8, ptr %5) #16
  call void @llvm.lifetime.start.p0(i64 8, ptr %6) #16
  call void @llvm.lifetime.start.p0(i64 8, ptr %7) #16
  %8 = load i64, ptr %4, align 8, !tbaa !12
  %9 = call ptr @rb_check_typeddata(i64 noundef %8, ptr noundef @rb_location_type)
  store ptr %9, ptr %7, align 8, !tbaa !92
  %10 = load i64, ptr %4, align 8, !tbaa !12
  %11 = call i64 @rb_obj_class(i64 noundef %10)
  %12 = call i64 @rb_class_path(i64 noundef %11)
  store i64 %12, ptr %6, align 8, !tbaa !12
  %13 = call i64 @rbimpl_str_new_cstr(ptr noundef @.str.44)
  store i64 %13, ptr %5, align 8, !tbaa !12
  %14 = load i64, ptr %5, align 8, !tbaa !12
  %15 = load i64, ptr %6, align 8, !tbaa !12
  %16 = call i64 @rb_str_append(i64 noundef %14, i64 noundef %15)
  %17 = load i64, ptr %5, align 8, !tbaa !12
  %18 = load ptr, ptr %7, align 8, !tbaa !92
  %19 = getelementptr inbounds nuw %struct.ASTLocationData, ptr %18, i32 0, i32 0
  %20 = load i32, ptr %19, align 4, !tbaa !94
  %21 = load ptr, ptr %7, align 8, !tbaa !92
  %22 = getelementptr inbounds nuw %struct.ASTLocationData, ptr %21, i32 0, i32 1
  %23 = load i32, ptr %22, align 4, !tbaa !96
  %24 = load ptr, ptr %7, align 8, !tbaa !92
  %25 = getelementptr inbounds nuw %struct.ASTLocationData, ptr %24, i32 0, i32 2
  %26 = load i32, ptr %25, align 4, !tbaa !97
  %27 = load ptr, ptr %7, align 8, !tbaa !92
  %28 = getelementptr inbounds nuw %struct.ASTLocationData, ptr %27, i32 0, i32 3
  %29 = load i32, ptr %28, align 4, !tbaa !98
  %30 = call i64 (i64, ptr, ...) @rb_str_catf(i64 noundef %17, ptr noundef @.str.48, i32 noundef %20, i32 noundef %23, i32 noundef %26, i32 noundef %29)
  %31 = load i64, ptr %5, align 8, !tbaa !12
  call void @llvm.lifetime.end.p0(i64 8, ptr %7) #16
  call void @llvm.lifetime.end.p0(i64 8, ptr %6) #16
  call void @llvm.lifetime.end.p0(i64 8, ptr %5) #16
  ret i64 %31
}