; Function Attrs: nounwind sspstrong uwtable
define internal noundef i64 @ast_location_inspect(ptr readnone captures(none) %0, i64 noundef %1) #0 {
  %3 = tail call ptr @rb_check_typeddata(i64 noundef %1, ptr noundef nonnull @rb_location_type) #11
  %4 = tail call i64 @rb_obj_class(i64 noundef %1) #11
  %5 = tail call i64 @rb_class_path(i64 noundef %4) #11
  %6 = tail call i64 @rb_str_new_static(ptr noundef nonnull @.str.44, i64 noundef 2) #11
  %7 = tail call i64 @rb_str_append(i64 noundef %6, i64 noundef %5) #11
  %8 = load i32, ptr %3, align 4, !tbaa !107
  %9 = getelementptr inbounds nuw i8, ptr %3, i64 4
  %10 = load i32, ptr %9, align 4, !tbaa !109
  %11 = getelementptr inbounds nuw i8, ptr %3, i64 8
  %12 = load i32, ptr %11, align 4, !tbaa !110
  %13 = getelementptr inbounds nuw i8, ptr %3, i64 12
  %14 = load i32, ptr %13, align 4, !tbaa !111
  %15 = tail call i64 (i64, ptr, ...) @rb_str_catf(i64 noundef %6, ptr noundef nonnull @.str.48, i32 noundef %8, i32 noundef %10, i32 noundef %12, i32 noundef %14) #11
  ret i64 %6
}